target datalayout = "e-m:e-p270:32:32-p271:32:32-p272:64:64-i64:64-i128:128-f80:128-n8:16:32:64-S128"
target triple = "x86_64-pc-linux-gnu"

%struct.qemu_plugin_u64 = type { ptr, i64 }
%struct.ClassSelector = type { ptr, ptr, i32 }
%struct.InsnClassExecCount = type { ptr, ptr, i32, i32, i32, %struct.qemu_plugin_u64 }
%struct._GList = type { ptr, ptr, ptr }
%struct.InsnExecCount = type { ptr, i32, %struct.qemu_plugin_u64, ptr }
%struct._GString = type { ptr, i64, i64 }

@class_table = internal global ptr null, align 8
@class_table_sz = internal global i32 0, align 4
@verbose = internal global i8 0, align 1
@insns = internal global ptr null, align 8
@.str.119 = private unnamed_addr constant [22 x i8] c"Instruction Classes:\0A\00", align 1
@.str.120 = private unnamed_addr constant [25 x i8] c"Class: %-24s\09(%ld hits)\0A\00", align 1
@.str.121 = private unnamed_addr constant [35 x i8] c"Class: %-24s\09counted individually\0A\00", align 1
@.str.122 = private unnamed_addr constant [26 x i8] c"Class: %-24s\09not counted\0A\00", align 1
@.str.123 = private unnamed_addr constant [26 x i8] c"Individual Instructions:\0A\00", align 1
@limit = internal global i32 50, align 4
@.str.124 = private unnamed_addr constant [40 x i8] c"Instr: %-24s\09(%ld hits)\09(op=0x%08x/%s)\0A\00", align 1
@.str.125 = private unnamed_addr constant [15 x i8] c"un-categorised\00", align 1

; Function Attrs: inlinehint nounwind sspstrong uwtable
define internal void @g_autoptr_cleanup_gstring_free(ptr noundef %0) #5 {
  %2 = alloca ptr, align 8
  store ptr %0, ptr %2, align 8
  %3 = load ptr, ptr %2, align 8
  %4 = icmp ne ptr %3, null
  br i1 %4, label %5, label %8

5:                                                ; preds = %1
  %6 = load ptr, ptr %2, align 8
  %7 = call ptr @g_string_free(ptr noundef %6, i32 noundef 1)
  br label %8

8:                                                ; preds = %5, %1
  ret void
}

; Function Attrs: inlinehint nounwind sspstrong uwtable
define internal void @glib_autoptr_clear_GString(ptr noundef %0) #5 {
  %2 = alloca ptr, align 8
  store ptr %0, ptr %2, align 8
  %3 = load ptr, ptr %2, align 8
  %4 = icmp ne ptr %3, null
  br i1 %4, label %5, label %7

5:                                                ; preds = %1
  %6 = load ptr, ptr %2, align 8
  call void @g_autoptr_cleanup_gstring_free(ptr noundef %6)
  br label %7

7:                                                ; preds = %5, %1
  ret void
}

; Function Attrs: inlinehint nounwind sspstrong uwtable
define internal void @glib_autoptr_cleanup_GString(ptr noundef %0) #5 {
  %2 = alloca ptr, align 8
  store ptr %0, ptr %2, align 8
  %3 = load ptr, ptr %2, align 8
  %4 = load ptr, ptr %3, align 8
  call void @glib_autoptr_clear_GString(ptr noundef %4)
  ret void
}

; Function Attrs: nounwind sspstrong uwtable
define internal void @plugin_exit(i64 noundef %0, ptr noundef %1) #0 {
  %3 = alloca i64, align 8
  %4 = alloca ptr, align 8
  %5 = alloca ptr, align 8
  %6 = alloca i32, align 4
  %7 = alloca i64, align 8
  %8 = alloca ptr, align 8
  %9 = alloca ptr, align 8
  %10 = alloca ptr, align 8
  %11 = alloca i32, align 4
  store i64 %0, ptr %3, align 8
  store ptr %1, ptr %4, align 8
  call void @llvm.lifetime.start.p0(i64 8, ptr %5) #13
  %12 = call ptr @g_string_new(ptr noundef @.str.119)
  store ptr %12, ptr %5, align 8
  call void @llvm.lifetime.start.p0(i64 4, ptr %6) #13
  store i32 0, ptr %6, align 4, !annotation !3
  call void @llvm.lifetime.start.p0(i64 8, ptr %7) #13
  store i64 0, ptr %7, align 8, !annotation !3
  call void @llvm.lifetime.start.p0(i64 8, ptr %8) #13
  store ptr null, ptr %8, align 8, !annotation !3
  call void @llvm.lifetime.start.p0(i64 8, ptr %9) #13
  store ptr null, ptr %9, align 8
  store i32 0, ptr %6, align 4
  br label %13

13:                                               ; preds = %57, %2
  %14 = load i32, ptr %6, align 4
  %15 = load i32, ptr @class_table_sz, align 4
  %16 = icmp slt i32 %14, %15
  br i1 %16, label %17, label %60

17:                                               ; preds = %13
  %18 = load ptr, ptr @class_table, align 8
  %19 = load i32, ptr %6, align 4
  %20 = sext i32 %19 to i64
  %21 = getelementptr inbounds %struct.InsnClassExecCount, ptr %18, i64 %20
  store ptr %21, ptr %9, align 8
  %22 = load ptr, ptr %9, align 8
  %23 = getelementptr inbounds nuw %struct.InsnClassExecCount, ptr %22, i32 0, i32 4
  %24 = load i32, ptr %23, align 8
  switch i32 %24, label %55 [
    i32 0, label %25
    i32 1, label %45
    i32 2, label %50
  ]

25:                                               ; preds = %17
  %26 = load ptr, ptr %9, align 8
  %27 = getelementptr inbounds nuw %struct.InsnClassExecCount, ptr %26, i32 0, i32 5
  %28 = getelementptr inbounds nuw { ptr, i64 }, ptr %27, i32 0, i32 0
  %29 = load ptr, ptr %28, align 8
  %30 = getelementptr inbounds nuw { ptr, i64 }, ptr %27, i32 0, i32 1
  %31 = load i64, ptr %30, align 8
  %32 = call i64 @qemu_plugin_u64_sum(ptr %29, i64 %31)
  store i64 %32, ptr %7, align 8
  %33 = load i64, ptr %7, align 8
  %34 = icmp ne i64 %33, 0
  br i1 %34, label %38, label %35

35:                                               ; preds = %25
  %36 = load i8, ptr @verbose, align 1, !range !10, !noundef !11
  %37 = trunc i8 %36 to i1
  br i1 %37, label %38, label %44

38:                                               ; preds = %35, %25
  %39 = load ptr, ptr %5, align 8
  %40 = load ptr, ptr %9, align 8
  %41 = getelementptr inbounds nuw %struct.InsnClassExecCount, ptr %40, i32 0, i32 0
  %42 = load ptr, ptr %41, align 8
  %43 = load i64, ptr %7, align 8
  call void (ptr, ptr, ...) @g_string_append_printf(ptr noundef %39, ptr noundef @.str.120, ptr noundef %42, i64 noundef %43)
  br label %44

44:                                               ; preds = %38, %35
  br label %56

45:                                               ; preds = %17
  %46 = load ptr, ptr %5, align 8
  %47 = load ptr, ptr %9, align 8
  %48 = getelementptr inbounds nuw %struct.InsnClassExecCount, ptr %47, i32 0, i32 0
  %49 = load ptr, ptr %48, align 8
  call void (ptr, ptr, ...) @g_string_append_printf(ptr noundef %46, ptr noundef @.str.121, ptr noundef %49)
  br label %56

50:                                               ; preds = %17
  %51 = load ptr, ptr %5, align 8
  %52 = load ptr, ptr %9, align 8
  %53 = getelementptr inbounds nuw %struct.InsnClassExecCount, ptr %52, i32 0, i32 0
  %54 = load ptr, ptr %53, align 8
  call void (ptr, ptr, ...) @g_string_append_printf(ptr noundef %51, ptr noundef @.str.122, ptr noundef %54)
  br label %56

55:                                               ; preds = %17
  br label %56

56:                                               ; preds = %55, %50, %45, %44
  br label %57

57:                                               ; preds = %56
  %58 = load i32, ptr %6, align 4
  %59 = add i32 %58, 1
  store i32 %59, ptr %6, align 4
  br label %13, !llvm.loop !13

60:                                               ; preds = %13
  %61 = load ptr, ptr @insns, align 8
  %62 = call ptr @g_hash_table_get_values(ptr noundef %61)
  store ptr %62, ptr %8, align 8
  %63 = load ptr, ptr %8, align 8
  %64 = icmp ne ptr %63, null
  br i1 %64, label %65, label %140

65:                                               ; preds = %60
  %66 = load ptr, ptr %8, align 8
  %67 = icmp ne ptr %66, null
  br i1 %67, label %68, label %73

68:                                               ; preds = %65
  %69 = load ptr, ptr %8, align 8
  %70 = getelementptr inbounds nuw %struct._GList, ptr %69, i32 0, i32 1
  %71 = load ptr, ptr %70, align 8
  %72 = icmp ne ptr %71, null
  br i1 %72, label %74, label %140

73:                                               ; preds = %65
  br i1 false, label %74, label %140

74:                                               ; preds = %73, %68
  %75 = load ptr, ptr %5, align 8
  call void (ptr, ptr, ...) @g_string_append_printf(ptr noundef %75, ptr noundef @.str.123)
  %76 = load ptr, ptr %8, align 8
  %77 = call ptr @g_list_sort(ptr noundef %76, ptr noundef @cmp_exec_count)
  store ptr %77, ptr %8, align 8
  store i32 0, ptr %6, align 4
  br label %78

78:                                               ; preds = %136, %74
  %79 = load i32, ptr %6, align 4
  %80 = load i32, ptr @limit, align 4
  %81 = icmp slt i32 %79, %80
  br i1 %81, label %82, label %93

82:                                               ; preds = %78
  %83 = load ptr, ptr %8, align 8
  %84 = icmp ne ptr %83, null
  br i1 %84, label %85, label %89

85:                                               ; preds = %82
  %86 = load ptr, ptr %8, align 8
  %87 = getelementptr inbounds nuw %struct._GList, ptr %86, i32 0, i32 1
  %88 = load ptr, ptr %87, align 8
  br label %90

89:                                               ; preds = %82
  br label %90

90:                                               ; preds = %89, %85
  %91 = phi ptr [ %88, %85 ], [ null, %89 ]
  %92 = icmp ne ptr %91, null
  br label %93

93:                                               ; preds = %90, %78
  %94 = phi i1 [ false, %78 ], [ %92, %90 ]
  br i1 %94, label %95, label %138

95:                                               ; preds = %93
  call void @llvm.lifetime.start.p0(i64 8, ptr %10) #13
  %96 = load ptr, ptr %8, align 8
  %97 = getelementptr inbounds nuw %struct._GList, ptr %96, i32 0, i32 0
  %98 = load ptr, ptr %97, align 8
  store ptr %98, ptr %10, align 8
  %99 = load ptr, ptr %5, align 8
  %100 = load ptr, ptr %10, align 8
  %101 = getelementptr inbounds nuw %struct.InsnExecCount, ptr %100, i32 0, i32 0
  %102 = load ptr, ptr %101, align 8
  %103 = load ptr, ptr %10, align 8
  %104 = getelementptr inbounds nuw %struct.InsnExecCount, ptr %103, i32 0, i32 2
  %105 = getelementptr inbounds nuw { ptr, i64 }, ptr %104, i32 0, i32 0
  %106 = load ptr, ptr %105, align 8
  %107 = getelementptr inbounds nuw { ptr, i64 }, ptr %104, i32 0, i32 1
  %108 = load i64, ptr %107, align 8
  %109 = call i64 @qemu_plugin_u64_sum(ptr %106, i64 %108)
  %110 = load ptr, ptr %10, align 8
  %111 = getelementptr inbounds nuw %struct.InsnExecCount, ptr %110, i32 0, i32 1
  %112 = load i32, ptr %111, align 8
  %113 = load ptr, ptr %10, align 8
  %114 = getelementptr inbounds nuw %struct.InsnExecCount, ptr %113, i32 0, i32 3
  %115 = load ptr, ptr %114, align 8
  %116 = icmp ne ptr %115, null
  br i1 %116, label %117, label %123

117:                                              ; preds = %95
  %118 = load ptr, ptr %10, align 8
  %119 = getelementptr inbounds nuw %struct.InsnExecCount, ptr %118, i32 0, i32 3
  %120 = load ptr, ptr %119, align 8
  %121 = getelementptr inbounds nuw %struct.InsnClassExecCount, ptr %120, i32 0, i32 0
  %122 = load ptr, ptr %121, align 8
  br label %124

123:                                              ; preds = %95
  br label %124

124:                                              ; preds = %123, %117
  %125 = phi ptr [ %122, %117 ], [ @.str.125, %123 ]
  call void (ptr, ptr, ...) @g_string_append_printf(ptr noundef %99, ptr noundef @.str.124, ptr noundef %102, i64 noundef %109, i32 noundef %112, ptr noundef %125)
  call void @llvm.lifetime.end.p0(i64 8, ptr %10) #13
  br label %126

126:                                              ; preds = %124
  %127 = load i32, ptr %6, align 4
  %128 = add i32 %127, 1
  store i32 %128, ptr %6, align 4
  %129 = load ptr, ptr %8, align 8
  %130 = icmp ne ptr %129, null
  br i1 %130, label %131, label %135

131:                                              ; preds = %126
  %132 = load ptr, ptr %8, align 8
  %133 = getelementptr inbounds nuw %struct._GList, ptr %132, i32 0, i32 1
  %134 = load ptr, ptr %133, align 8
  br label %136

135:                                              ; preds = %126
  br label %136

136:                                              ; preds = %135, %131
  %137 = phi ptr [ %134, %131 ], [ null, %135 ]
  store ptr %137, ptr %8, align 8
  br label %78, !llvm.loop !14

138:                                              ; preds = %93
  %139 = load ptr, ptr %8, align 8
  call void @g_list_free(ptr noundef %139)
  br label %140

140:                                              ; preds = %138, %73, %68, %60
  %141 = load ptr, ptr @insns, align 8
  call void @g_hash_table_destroy(ptr noundef %141)
  store i32 0, ptr %6, align 4
  br label %142

142:                                              ; preds = %172, %140
  %143 = load i32, ptr %6, align 4
  %144 = sext i32 %143 to i64
  %145 = icmp ult i64 %144, 4
  br i1 %145, label %146, label %175

146:                                              ; preds = %142
  call void @llvm.lifetime.start.p0(i64 4, ptr %11) #13
  store i32 0, ptr %11, align 4
  br label %147

147:                                              ; preds = %168, %146
  %148 = load i32, ptr %11, align 4
  %149 = load i32, ptr %6, align 4
  %150 = sext i32 %149 to i64
  %151 = getelementptr inbounds [4 x %struct.ClassSelector], ptr @class_tables, i64 0, i64 %150
  %152 = getelementptr inbounds nuw %struct.ClassSelector, ptr %151, i32 0, i32 2
  %153 = load i32, ptr %152, align 8
  %154 = icmp slt i32 %148, %153
  br i1 %154, label %156, label %155

155:                                              ; preds = %147
  call void @llvm.lifetime.end.p0(i64 4, ptr %11) #13
  br label %171

156:                                              ; preds = %147
  %157 = load i32, ptr %6, align 4
  %158 = sext i32 %157 to i64
  %159 = getelementptr inbounds [4 x %struct.ClassSelector], ptr @class_tables, i64 0, i64 %158
  %160 = getelementptr inbounds nuw %struct.ClassSelector, ptr %159, i32 0, i32 1
  %161 = load ptr, ptr %160, align 8
  %162 = load i32, ptr %11, align 4
  %163 = sext i32 %162 to i64
  %164 = getelementptr inbounds %struct.InsnClassExecCount, ptr %161, i64 %163
  %165 = getelementptr inbounds nuw %struct.InsnClassExecCount, ptr %164, i32 0, i32 5
  %166 = getelementptr inbounds nuw %struct.qemu_plugin_u64, ptr %165, i32 0, i32 0
  %167 = load ptr, ptr %166, align 8
  call void @qemu_plugin_scoreboard_free(ptr noundef %167)
  br label %168

168:                                              ; preds = %156
  %169 = load i32, ptr %11, align 4
  %170 = add i32 %169, 1
  store i32 %170, ptr %11, align 4
  br label %147, !llvm.loop !15

171:                                              ; preds = %155
  br label %172

172:                                              ; preds = %171
  %173 = load i32, ptr %6, align 4
  %174 = add i32 %173, 1
  store i32 %174, ptr %6, align 4
  br label %142, !llvm.loop !16

175:                                              ; preds = %142
  %176 = load ptr, ptr %5, align 8
  %177 = getelementptr inbounds nuw %struct._GString, ptr %176, i32 0, i32 0
  %178 = load ptr, ptr %177, align 8
  call void @qemu_plugin_outs(ptr noundef %178)
  call void @llvm.lifetime.end.p0(i64 8, ptr %9) #13
  call void @llvm.lifetime.end.p0(i64 8, ptr %8) #13
  call void @llvm.lifetime.end.p0(i64 8, ptr %7) #13
  call void @llvm.lifetime.end.p0(i64 4, ptr %6) #13
  call void @glib_autoptr_cleanup_GString(ptr noundef %5)
  call void @llvm.lifetime.end.p0(i64 8, ptr %5) #13
  ret void
}