; Function Attrs: nounwind sspstrong uwtable
define internal void @plugin_exit(i64 %0, ptr readnone captures(none) %1) #0 {
  %3 = tail call ptr @g_string_new(ptr noundef nonnull @.str.119) #8
  %4 = load i32, ptr @class_table_sz, align 4
  %5 = icmp sgt i32 %4, 0
  br i1 %5, label %.lr.ph, label %._crit_edge

.lr.ph:                                           ; preds = %2, %25
  %indvars.iv = phi i64 [ %indvars.iv.next, %25 ], [ 0, %2 ]
  %6 = load ptr, ptr @class_table, align 8
  %7 = getelementptr inbounds nuw %struct.InsnClassExecCount, ptr %6, i64 %indvars.iv
  %8 = getelementptr inbounds nuw i8, ptr %7, i64 24
  %9 = load i32, ptr %8, align 8
  switch i32 %9, label %25 [
    i32 0, label %10
    i32 1, label %21
    i32 2, label %23
  ]

10:                                               ; preds = %.lr.ph
  %11 = getelementptr inbounds nuw i8, ptr %7, i64 32
  %12 = load ptr, ptr %11, align 8
  %13 = getelementptr inbounds nuw i8, ptr %7, i64 40
  %14 = load i64, ptr %13, align 8
  %15 = tail call i64 @qemu_plugin_u64_sum(ptr %12, i64 %14) #8
  %.not43 = icmp eq i64 %15, 0
  br i1 %.not43, label %16, label %19

16:                                               ; preds = %10
  %17 = load i8, ptr @verbose, align 1, !range !10, !noundef !11
  %18 = trunc nuw i8 %17 to i1
  br i1 %18, label %19, label %25

19:                                               ; preds = %16, %10
  %20 = load ptr, ptr %7, align 8
  tail call void (ptr, ptr, ...) @g_string_append_printf(ptr noundef %3, ptr noundef nonnull @.str.120, ptr noundef %20, i64 noundef %15) #8
  br label %25

21:                                               ; preds = %.lr.ph
  %22 = load ptr, ptr %7, align 8
  tail call void (ptr, ptr, ...) @g_string_append_printf(ptr noundef %3, ptr noundef nonnull @.str.121, ptr noundef %22) #8
  br label %25

23:                                               ; preds = %.lr.ph
  %24 = load ptr, ptr %7, align 8
  tail call void (ptr, ptr, ...) @g_string_append_printf(ptr noundef %3, ptr noundef nonnull @.str.122, ptr noundef %24) #8
  br label %25

25:                                               ; preds = %21, %23, %19, %16, %.lr.ph
  %indvars.iv.next = add nuw nsw i64 %indvars.iv, 1
  %26 = load i32, ptr @class_table_sz, align 4
  %27 = sext i32 %26 to i64
  %28 = icmp slt i64 %indvars.iv.next, %27
  br i1 %28, label %.lr.ph, label %._crit_edge, !llvm.loop !13

._crit_edge:                                      ; preds = %25, %2
  %29 = load ptr, ptr @insns, align 8
  %30 = tail call ptr @g_hash_table_get_values(ptr noundef %29) #8
  %.not = icmp eq ptr %30, null
  br i1 %.not, label %58, label %31

31:                                               ; preds = %._crit_edge
  %32 = getelementptr inbounds nuw i8, ptr %30, i64 8
  %33 = load ptr, ptr %32, align 8
  %.not39 = icmp eq ptr %33, null
  br i1 %.not39, label %58, label %34

34:                                               ; preds = %31
  tail call void (ptr, ptr, ...) @g_string_append_printf(ptr noundef %3, ptr noundef nonnull @.str.123) #8
  %35 = tail call ptr @g_list_sort(ptr noundef nonnull %30, ptr noundef nonnull @cmp_exec_count) #8
  %.not4051 = icmp eq ptr %35, null
  br i1 %.not4051, label %.critedge, label %.lr.ph55

.lr.ph55:                                         ; preds = %34, %53
  %.153 = phi i32 [ %55, %53 ], [ 0, %34 ]
  %.03552 = phi ptr [ %56, %53 ], [ %35, %34 ]
  %36 = getelementptr inbounds nuw i8, ptr %.03552, i64 8
  %37 = load ptr, ptr %36, align 8
  %38 = icmp eq ptr %37, null
  br i1 %38, label %.critedge, label %39

39:                                               ; preds = %.lr.ph55
  %40 = load ptr, ptr %.03552, align 8
  %41 = load ptr, ptr %40, align 8
  %42 = getelementptr inbounds nuw i8, ptr %40, i64 16
  %43 = load ptr, ptr %42, align 8
  %44 = getelementptr inbounds nuw i8, ptr %40, i64 24
  %45 = load i64, ptr %44, align 8
  %46 = tail call i64 @qemu_plugin_u64_sum(ptr %43, i64 %45) #8
  %47 = getelementptr inbounds nuw i8, ptr %40, i64 8
  %48 = load i32, ptr %47, align 8
  %49 = getelementptr inbounds nuw i8, ptr %40, i64 32
  %50 = load ptr, ptr %49, align 8
  %.not42 = icmp eq ptr %50, null
  br i1 %.not42, label %53, label %51

51:                                               ; preds = %39
  %52 = load ptr, ptr %50, align 8
  br label %53

53:                                               ; preds = %39, %51
  %54 = phi ptr [ %52, %51 ], [ @.str.125, %39 ]
  tail call void (ptr, ptr, ...) @g_string_append_printf(ptr noundef %3, ptr noundef nonnull @.str.124, ptr noundef %41, i64 noundef %46, i32 noundef %48, ptr noundef %54) #8
  %55 = add nuw nsw i32 %.153, 1
  %56 = load ptr, ptr %36, align 8
  %57 = icmp samesign ugt i32 %.153, 48
  %.not40 = icmp eq ptr %56, null
  %or.cond = select i1 %57, i1 true, i1 %.not40
  br i1 %or.cond, label %.critedge, label %.lr.ph55, !llvm.loop !14

.critedge:                                        ; preds = %.lr.ph55, %53, %34
  %.035.lcssa = phi ptr [ null, %34 ], [ %56, %53 ], [ %.03552, %.lr.ph55 ]
  tail call void @g_list_free(ptr noundef %.035.lcssa) #8
  br label %58

58:                                               ; preds = %.critedge, %31, %._crit_edge
  %59 = load ptr, ptr @insns, align 8
  tail call void @g_hash_table_destroy(ptr noundef %59) #8
  br label %.preheader

.preheader:                                       ; preds = %58, %._crit_edge60
  %indvars.iv66 = phi i64 [ 0, %58 ], [ %indvars.iv.next67, %._crit_edge60 ]
  %60 = getelementptr inbounds nuw [4 x %struct.ClassSelector], ptr @class_tables, i64 0, i64 %indvars.iv66
  %61 = getelementptr inbounds nuw i8, ptr %60, i64 16
  %62 = load i32, ptr %61, align 8
  %63 = icmp sgt i32 %62, 0
  br i1 %63, label %.lr.ph59, label %._crit_edge60

.lr.ph59:                                         ; preds = %.preheader
  %64 = getelementptr inbounds nuw i8, ptr %60, i64 8
  %65 = load ptr, ptr %64, align 8
  %wide.trip.count = zext nneg i32 %62 to i64
  br label %66

._crit_edge60:                                    ; preds = %66, %.preheader
  %indvars.iv.next67 = add nuw nsw i64 %indvars.iv66, 1
  %exitcond69.not = icmp eq i64 %indvars.iv.next67, 4
  br i1 %exitcond69.not, label %glib_autoptr_cleanup_GString.exit, label %.preheader, !llvm.loop !15

66:                                               ; preds = %.lr.ph59, %66
  %indvars.iv63 = phi i64 [ 0, %.lr.ph59 ], [ %indvars.iv.next64, %66 ]
  %67 = getelementptr inbounds nuw %struct.InsnClassExecCount, ptr %65, i64 %indvars.iv63, i32 5
  %68 = load ptr, ptr %67, align 8
  tail call void @qemu_plugin_scoreboard_free(ptr noundef %68) #8
  %indvars.iv.next64 = add nuw nsw i64 %indvars.iv63, 1
  %exitcond.not = icmp eq i64 %indvars.iv.next64, %wide.trip.count
  br i1 %exitcond.not, label %._crit_edge60, label %66, !llvm.loop !16

glib_autoptr_cleanup_GString.exit:                ; preds = %._crit_edge60
  %69 = load ptr, ptr %3, align 8
  tail call void @qemu_plugin_outs(ptr noundef %69) #8
  %70 = tail call ptr @g_string_free(ptr noundef nonnull %3, i32 noundef 1) #8
  ret void
}